target datalayout = "e-m:e-p270:32:32-p271:32:32-p272:64:64-i64:64-i128:128-f80:128-n8:16:32:64-S128"
target triple = "x86_64-pc-linux-gnu"

@.str = private unnamed_addr constant [32 x i8] c"../openssl/test/testutil/load.c\00", align 1
@.str.1 = private unnamed_addr constant [5 x i8] c"file\00", align 1
@.str.2 = private unnamed_addr constant [28 x i8] c"bio = BIO_new(BIO_s_file())\00", align 1
@.str.3 = private unnamed_addr constant [29 x i8] c"BIO_read_filename(bio, file)\00", align 1
@.str.4 = private unnamed_addr constant [2 x i8] c"0\00", align 1
@.str.8 = private unnamed_addr constant [70 x i8] c"key = PEM_read_bio_PrivateKey_ex(bio, NULL, NULL, NULL, libctx, NULL)\00", align 1
@.str.9 = private unnamed_addr constant [32 x i8] c"Spurious error from reading PEM\00", align 1

; Function Attrs: nounwind uwtable
define ptr @load_pkey_pem(ptr noundef %0, ptr noundef %1) #0 {
  %3 = alloca ptr, align 8
  %4 = alloca ptr, align 8
  %5 = alloca ptr, align 8
  %6 = alloca ptr, align 8
  %7 = alloca ptr, align 8
  %8 = alloca i32, align 4
  %9 = alloca i64, align 8
  store ptr %0, ptr %4, align 8, !tbaa !3
  store ptr %1, ptr %5, align 8, !tbaa !8
  call void @llvm.lifetime.start.p0(i64 8, ptr %6) #4
  store ptr null, ptr %6, align 8, !tbaa !18
  call void @llvm.lifetime.start.p0(i64 8, ptr %7) #4
  store ptr null, ptr %7, align 8, !tbaa !12
  %10 = load ptr, ptr %4, align 8, !tbaa !3
  %11 = call i32 @test_ptr(ptr noundef @.str, i32 noundef 74, ptr noundef @.str.1, ptr noundef %10)
  %12 = icmp ne i32 %11, 0
  br i1 %12, label %13, label %18

13:                                               ; preds = %2
  %14 = call ptr @BIO_s_file()
  %15 = call ptr @BIO_new(ptr noundef %14)
  store ptr %15, ptr %7, align 8, !tbaa !12
  %16 = call i32 @test_ptr(ptr noundef @.str, i32 noundef 74, ptr noundef @.str.2, ptr noundef %15)
  %17 = icmp ne i32 %16, 0
  br i1 %17, label %19, label %18

18:                                               ; preds = %13, %2
  store ptr null, ptr %3, align 8
  store i32 1, ptr %8, align 4
  br label %44

19:                                               ; preds = %13
  %20 = load ptr, ptr %7, align 8, !tbaa !12
  %21 = load ptr, ptr %4, align 8, !tbaa !3
  %22 = call i64 @BIO_ctrl(ptr noundef %20, i32 noundef 108, i64 noundef 3, ptr noundef %21)
  %23 = trunc i64 %22 to i32
  %24 = call i32 @test_int_gt(ptr noundef @.str, i32 noundef 76, ptr noundef @.str.3, ptr noundef @.str.4, i32 noundef %23, i32 noundef 0)
  %25 = icmp ne i32 %24, 0
  br i1 %25, label %26, label %40

26:                                               ; preds = %19
  call void @llvm.lifetime.start.p0(i64 8, ptr %9) #4
  %27 = call i64 @ERR_peek_error()
  store i64 %27, ptr %9, align 8, !tbaa !20
  %28 = load ptr, ptr %7, align 8, !tbaa !12
  %29 = load ptr, ptr %5, align 8, !tbaa !8
  %30 = call ptr @PEM_read_bio_PrivateKey_ex(ptr noundef %28, ptr noundef null, ptr noundef null, ptr noundef null, ptr noundef %29, ptr noundef null)
  store ptr %30, ptr %6, align 8, !tbaa !18
  %31 = call i32 @test_ptr(ptr noundef @.str, i32 noundef 80, ptr noundef @.str.8, ptr noundef %30)
  %32 = icmp ne i32 %31, 0
  br i1 %32, label %33, label %39

33:                                               ; preds = %26
  %34 = load i64, ptr %9, align 8, !tbaa !20
  %35 = call i64 @ERR_peek_error()
  %36 = icmp ne i64 %34, %35
  br i1 %36, label %37, label %39

37:                                               ; preds = %33
  call void (ptr, i32, ptr, ...) @test_info(ptr noundef @.str, i32 noundef 82, ptr noundef @.str.9)
  %38 = load ptr, ptr %6, align 8, !tbaa !18
  call void @EVP_PKEY_free(ptr noundef %38)
  store ptr null, ptr %6, align 8, !tbaa !18
  br label %39

39:                                               ; preds = %37, %33, %26
  call void @llvm.lifetime.end.p0(i64 8, ptr %9) #4
  br label %40

40:                                               ; preds = %39, %19
  %41 = load ptr, ptr %7, align 8, !tbaa !12
  %42 = call i32 @BIO_free(ptr noundef %41)
  %43 = load ptr, ptr %6, align 8, !tbaa !18
  store ptr %43, ptr %3, align 8
  store i32 1, ptr %8, align 4
  br label %44

44:                                               ; preds = %40, %18
  call void @llvm.lifetime.end.p0(i64 8, ptr %7) #4
  call void @llvm.lifetime.end.p0(i64 8, ptr %6) #4
  %45 = load ptr, ptr %3, align 8
  ret ptr %45
}