; Function Attrs: nounwind uwtable
define noundef ptr @load_pkey_pem(ptr noundef %0, ptr noundef %1) local_unnamed_addr #0 {
  %3 = tail call i32 @test_ptr(ptr noundef nonnull @.str, i32 noundef 74, ptr noundef nonnull @.str.1, ptr noundef %0) #3
  %.not = icmp eq i32 %3, 0
  br i1 %.not, label %21, label %4

4:                                                ; preds = %2
  %5 = tail call ptr @BIO_s_file() #3
  %6 = tail call ptr @BIO_new(ptr noundef %5) #3
  %7 = tail call i32 @test_ptr(ptr noundef nonnull @.str, i32 noundef 74, ptr noundef nonnull @.str.2, ptr noundef %6) #3
  %.not10 = icmp eq i32 %7, 0
  br i1 %.not10, label %21, label %8

8:                                                ; preds = %4
  %9 = tail call i64 @BIO_ctrl(ptr noundef %6, i32 noundef 108, i64 noundef 3, ptr noundef %0) #3
  %10 = trunc i64 %9 to i32
  %11 = tail call i32 @test_int_gt(ptr noundef nonnull @.str, i32 noundef 76, ptr noundef nonnull @.str.3, ptr noundef nonnull @.str.4, i32 noundef %10, i32 noundef 0) #3
  %.not11 = icmp eq i32 %11, 0
  br i1 %.not11, label %19, label %12

12:                                               ; preds = %8
  %13 = tail call i64 @ERR_peek_error() #3
  %14 = tail call ptr @PEM_read_bio_PrivateKey_ex(ptr noundef %6, ptr noundef null, ptr noundef null, ptr noundef null, ptr noundef %1, ptr noundef null) #3
  %15 = tail call i32 @test_ptr(ptr noundef nonnull @.str, i32 noundef 80, ptr noundef nonnull @.str.8, ptr noundef %14) #3
  %.not12 = icmp eq i32 %15, 0
  br i1 %.not12, label %19, label %16

16:                                               ; preds = %12
  %17 = tail call i64 @ERR_peek_error() #3
  %.not13 = icmp eq i64 %13, %17
  br i1 %.not13, label %19, label %18

18:                                               ; preds = %16
  tail call void (ptr, i32, ptr, ...) @test_info(ptr noundef nonnull @.str, i32 noundef 82, ptr noundef nonnull @.str.9) #3
  tail call void @EVP_PKEY_free(ptr noundef %14) #3
  br label %19

19:                                               ; preds = %12, %16, %18, %8
  %.09 = phi ptr [ null, %8 ], [ null, %18 ], [ %14, %16 ], [ %14, %12 ]
  %20 = tail call i32 @BIO_free(ptr noundef %6) #3
  br label %21

21:                                               ; preds = %2, %4, %19
  %.0 = phi ptr [ %.09, %19 ], [ null, %4 ], [ null, %2 ]
  ret ptr %.0
}